target datalayout = "e-m:e-p270:32:32-p271:32:32-p272:64:64-i64:64-i128:128-f80:128-n8:16:32:64-S128"
target triple = "x86_64-pc-linux-gnu"

; Function Attrs: nounwind uwtable
define i32 @av_get_pix_fmt_loss(i32 noundef %0, i32 noundef %1, i32 noundef %2) #0 {
  %4 = alloca i32, align 4
  %5 = alloca i32, align 4
  %6 = alloca i32, align 4
  %7 = alloca i32, align 4
  %8 = alloca i32, align 4
  %9 = alloca i32, align 4
  %10 = alloca i32, align 4
  store i32 %0, ptr %5, align 4, !tbaa !15
  store i32 %1, ptr %6, align 4, !tbaa !15
  store i32 %2, ptr %7, align 4, !tbaa !15
  call void @llvm.lifetime.start.p0(i64 4, ptr %8) #8
  call void @llvm.lifetime.start.p0(i64 4, ptr %9) #8
  %11 = load i32, ptr %5, align 4, !tbaa !15
  %12 = load i32, ptr %6, align 4, !tbaa !15
  %13 = load i32, ptr %7, align 4, !tbaa !15
  %14 = icmp ne i32 %13, 0
  %15 = select i1 %14, i32 -1, i32 -9
  %16 = call i32 @get_pix_fmt_score(i32 noundef %11, i32 noundef %12, ptr noundef %8, i32 noundef %15)
  store i32 %16, ptr %9, align 4, !tbaa !15
  %17 = load i32, ptr %9, align 4, !tbaa !15
  %18 = icmp slt i32 %17, 0
  br i1 %18, label %19, label %21

19:                                               ; preds = %3
  %20 = load i32, ptr %9, align 4, !tbaa !15
  store i32 %20, ptr %4, align 4
  store i32 1, ptr %10, align 4
  br label %23

21:                                               ; preds = %3
  %22 = load i32, ptr %8, align 4, !tbaa !15
  store i32 %22, ptr %4, align 4
  store i32 1, ptr %10, align 4
  br label %23

23:                                               ; preds = %21, %19
  call void @llvm.lifetime.end.p0(i64 4, ptr %9) #8
  call void @llvm.lifetime.end.p0(i64 4, ptr %8) #8
  %24 = load i32, ptr %4, align 4
  ret i32 %24
}