; Function Attrs: nounwind uwtable
define i32 @av_get_pix_fmt_loss(i32 noundef %0, i32 noundef %1, i32 noundef %2) local_unnamed_addr #4 {
  %4 = alloca i32, align 4
  call void @llvm.lifetime.start.p0(i64 4, ptr nonnull %4) #15
  %.not = icmp eq i32 %2, 0
  %5 = select i1 %.not, i32 -9, i32 -1
  %6 = call fastcc i32 @get_pix_fmt_score(i32 noundef %0, i32 noundef %1, ptr noundef %4, i32 noundef %5)
  %7 = icmp slt i32 %6, 0
  %8 = load i32, ptr %4, align 4
  %.0 = select i1 %7, i32 %6, i32 %8
  call void @llvm.lifetime.end.p0(i64 4, ptr nonnull %4) #15
  ret i32 %.0
}